/*
 * Intel ACPI Component Architecture
 * AML/ASL+ Disassembler version 20141107-32 [Nov  7 2014]
 * Copyright (c) 2000 - 2014 Intel Corporation
 * 
 * Disassembling to symbolic ASL+ operators
 *
 * Disassembly of xsdt.dat, Sun May 21 13:13:45 2017
 *
 * ACPI Data Table [XSDT]
 *
 * Format: [HexOffset DecimalOffset ByteLength]  FieldName : FieldValue
 */

[000h 0000   4]                    Signature : "XSDT"    [Extended System Description Table]
[004h 0004   4]                 Table Length : 00000084
[008h 0008   1]                     Revision : 01
[009h 0009   1]                     Checksum : D3
[00Ah 0010   6]                       Oem ID : "_ASUS_"
[010h 0016   8]                 Oem Table ID : "Notebook"
[018h 0024   4]                 Oem Revision : 20110117
[01Ch 0028   4]              Asl Compiler ID : "MSFT"
[020h 0032   4]        Asl Compiler Revision : 00000097

[024h 0036   8]       ACPI Table Address   0 : 00000000BDD70290
[02Ch 0044   8]       ACPI Table Address   1 : 00000000BDD70390
[034h 0052   8]       ACPI Table Address   2 : 00000000BDD70430
[03Ch 0060   8]       ACPI Table Address   3 : 00000000BDD70470
[044h 0068   8]       ACPI Table Address   4 : 00000000BDD70620
[04Ch 0076   8]       ACPI Table Address   5 : 00000000BDD703F0
[054h 0084   8]       ACPI Table Address   6 : 00000000BDD705F0
[05Ch 0092   8]       ACPI Table Address   7 : 00000000BDD82040
[064h 0100   8]       ACPI Table Address   8 : 00000000BDD7FA40
[06Ch 0108   8]       ACPI Table Address   9 : 00000000BDD820C0
[074h 0116   8]       ACPI Table Address  10 : 00000000BDD945F0
[07Ch 0124   8]       ACPI Table Address  11 : 00000000BDD9D0C0

Raw Table Data: Length 132 (0x84)

  0000: 58 53 44 54 84 00 00 00 01 D3 5F 41 53 55 53 5F  XSDT......_ASUS_
  0010: 4E 6F 74 65 62 6F 6F 6B 17 01 11 20 4D 53 46 54  Notebook... MSFT
  0020: 97 00 00 00 90 02 D7 BD 00 00 00 00 90 03 D7 BD  ................
  0030: 00 00 00 00 30 04 D7 BD 00 00 00 00 70 04 D7 BD  ....0.......p...
  0040: 00 00 00 00 20 06 D7 BD 00 00 00 00 F0 03 D7 BD  .... ...........
  0050: 00 00 00 00 F0 05 D7 BD 00 00 00 00 40 20 D8 BD  ............@ ..
  0060: 00 00 00 00 40 FA D7 BD 00 00 00 00 C0 20 D8 BD  ....@........ ..
  0070: 00 00 00 00 F0 45 D9 BD 00 00 00 00 C0 D0 D9 BD  .....E..........
  0080: 00 00 00 00                                      ....
